; Function Attrs: mustprogress uwtable
define internal fastcc noundef range(i32 0, 3) i32 @_ZN10open_spiel11tiny_bridge12_GLOBAL__N_112CharToTrumpsEc(i8 noundef signext %0) unnamed_addr #3 personality ptr @__gxx_personality_v0 {
  %2 = alloca %"class.std::__cxx11::basic_string", align 8
  %3 = alloca %"class.absl::debian2::AlphaNum", align 8
  %4 = alloca %"class.absl::debian2::AlphaNum", align 8
  %5 = alloca %"class.std::__cxx11::basic_string", align 8
  %6 = alloca %"class.std::allocator", align 1
  %7 = alloca %"class.absl::debian2::AlphaNum", align 8
  switch i8 %0, label %_ZN4absl7debian28AlphaNumC2EPKc.exit [
    i8 72, label %23
    i8 83, label %8
    i8 78, label %9
  ]

8:                                                ; preds = %1
  br label %23

9:                                                ; preds = %1
  br label %23

_ZN4absl7debian28AlphaNumC2EPKc.exit:             ; preds = %1
  store ptr @.str.41, ptr %3, align 8
  %10 = getelementptr inbounds nuw i8, ptr %3, i64 8
  store i64 20, ptr %10, align 8
  call void @_ZNSaIcEC1Ev(ptr noundef nonnull align 1 dereferenceable(1) %6) #27
  invoke void @_ZNSt7__cxx1112basic_stringIcSt11char_traitsIcESaIcEEC2IS3_EEmcRKS3_(ptr noundef nonnull align 8 dereferenceable(32) %5, i64 noundef 1, i8 noundef signext %0, ptr noundef nonnull align 1 dereferenceable(1) %6)
          to label %11 unwind label %15

11:                                               ; preds = %_ZN4absl7debian28AlphaNumC2EPKc.exit
  call void @_ZN4absl7debian28AlphaNumC2ISaIcEEERKNSt7__cxx1112basic_stringIcSt11char_traitsIcET_EE(ptr noundef nonnull align 8 dereferenceable(48) %4, ptr noundef nonnull align 8 dereferenceable(32) %5)
  store ptr @.str.42, ptr %7, align 8
  %12 = getelementptr inbounds nuw i8, ptr %7, i64 8
  store i64 1, ptr %12, align 8
  invoke void @_ZN4absl7debian26StrCatB5cxx11ERKNS0_8AlphaNumES3_S3_(ptr dead_on_unwind nonnull writable sret(%"class.std::__cxx11::basic_string") align 8 %2, ptr noundef nonnull align 8 dereferenceable(48) %3, ptr noundef nonnull align 8 dereferenceable(48) %4, ptr noundef nonnull align 8 dereferenceable(48) %7)
          to label %13 unwind label %17

13:                                               ; preds = %11
  invoke void @_ZN10open_spiel15SpielFatalErrorERKNSt7__cxx1112basic_stringIcSt11char_traitsIcESaIcEEE(ptr noundef nonnull align 8 dereferenceable(32) %2) #26
          to label %14 unwind label %19

14:                                               ; preds = %13
  unreachable

15:                                               ; preds = %_ZN4absl7debian28AlphaNumC2EPKc.exit
  %16 = landingpad { ptr, i32 }
          cleanup
  br label %22

17:                                               ; preds = %11
  %18 = landingpad { ptr, i32 }
          cleanup
  br label %21

19:                                               ; preds = %13
  %20 = landingpad { ptr, i32 }
          cleanup
  call void @_ZNSt7__cxx1112basic_stringIcSt11char_traitsIcESaIcEED1Ev(ptr noundef nonnull align 8 dereferenceable(32) %2) #27
  br label %21

21:                                               ; preds = %19, %17
  %.pn = phi { ptr, i32 } [ %20, %19 ], [ %18, %17 ]
  call void @_ZNSt7__cxx1112basic_stringIcSt11char_traitsIcESaIcEED1Ev(ptr noundef nonnull align 8 dereferenceable(32) %5) #27
  br label %22

22:                                               ; preds = %21, %15
  %.pn.pn = phi { ptr, i32 } [ %.pn, %21 ], [ %16, %15 ]
  call void @_ZNSaIcED1Ev(ptr noundef nonnull align 1 dereferenceable(1) %6) #27
  resume { ptr, i32 } %.pn.pn

23:                                               ; preds = %1, %9, %8
  %.06 = phi i32 [ 2, %9 ], [ 1, %8 ], [ 0, %1 ]
  ret i32 %.06
}